; Function Attrs: mustprogress uwtable
define hidden void @_ZN3opt6maxsmt12update_upperERK8rational(ptr noundef nonnull align 8 dereferenceable(168) %0, ptr noundef nonnull align 8 dereferenceable(32) %1) local_unnamed_addr #4 align 2 {
  %3 = getelementptr inbounds nuw i8, ptr %0, i64 112
  %4 = load ptr, ptr @_ZN8rational13g_mpq_managerE, align 8, !tbaa !52
  %5 = getelementptr inbounds nuw i8, ptr %1, i64 4
  %6 = load i8, ptr %5, align 4
  %7 = and i8 %6, 1
  %8 = icmp eq i8 %7, 0
  br i1 %8, label %9, label %14

9:                                                ; preds = %2
  %10 = load i32, ptr %1, align 8, !tbaa !37
  store i32 %10, ptr %3, align 8, !tbaa !37
  %11 = getelementptr inbounds nuw i8, ptr %0, i64 116
  %12 = load i8, ptr %11, align 4
  %13 = and i8 %12, -2
  store i8 %13, ptr %11, align 4
  br label %_ZN11mpq_managerILb1EE3setER3mpzRKS1_.exit.i.i

14:                                               ; preds = %2
  tail call void @_ZN11mpz_managerILb1EE7big_setER3mpzRKS1_(ptr noundef nonnull align 8 dereferenceable(728) %4, ptr noundef nonnull align 8 dereferenceable(32) %3, ptr noundef nonnull align 8 dereferenceable(32) %1)
  br label %_ZN11mpq_managerILb1EE3setER3mpzRKS1_.exit.i.i

_ZN11mpq_managerILb1EE3setER3mpzRKS1_.exit.i.i:   ; preds = %14, %9
  %15 = getelementptr inbounds nuw i8, ptr %0, i64 128
  %16 = getelementptr inbounds nuw i8, ptr %1, i64 16
  %17 = getelementptr inbounds nuw i8, ptr %1, i64 20
  %18 = load i8, ptr %17, align 4
  %19 = and i8 %18, 1
  %20 = icmp eq i8 %19, 0
  br i1 %20, label %21, label %26

21:                                               ; preds = %_ZN11mpq_managerILb1EE3setER3mpzRKS1_.exit.i.i
  %22 = load i32, ptr %16, align 8, !tbaa !37
  store i32 %22, ptr %15, align 8, !tbaa !37
  %23 = getelementptr inbounds nuw i8, ptr %0, i64 132
  %24 = load i8, ptr %23, align 4
  %25 = and i8 %24, -2
  store i8 %25, ptr %23, align 4
  br label %_ZN8rationalaSERKS_.exit

26:                                               ; preds = %_ZN11mpq_managerILb1EE3setER3mpzRKS1_.exit.i.i
  tail call void @_ZN11mpz_managerILb1EE7big_setER3mpzRKS1_(ptr noundef nonnull align 8 dereferenceable(728) %4, ptr noundef nonnull align 8 dereferenceable(16) %15, ptr noundef nonnull align 8 dereferenceable(16) %16)
  br label %_ZN8rationalaSERKS_.exit

_ZN8rationalaSERKS_.exit:                         ; preds = %21, %26
  ret void
}